(lp1
(dp2
S'a_value'
p3
I1
sS'epsilon'
p4
F0.10000000000000001
sS'mae'
p5
F0.89056400246558454
sS'reduction_level'
p6
F0.01
sa(dp7
g3
I1
sg4
F0.10000000000000001
sg5
F0.89179679474008633
sg6
F0.02
sa(dp8
g3
I1
sg4
F0.10000000000000001
sg5
F0.89336346825559898
sg6
F0.050000000000000003
sa(dp9
g3
I1
sg4
F0.10000000000000001
sg5
F0.89287548798027527
sg6
F0.10000000000000001
sa(dp10
g3
I1
sg4
F0.10000000000000001
sg5
F0.88948530922539548
sg6
F0.14999999999999999
sa(dp11
g3
I1
sg4
F0.10000000000000001
sg5
F1.3096106431066366
sg6
F0.20000000000000001
sa(dp12
g3
I1
sg4
F0.10000000000000001
sg5
F0.99016334497637148
sg6
F0.29999999999999999
sa(dp13
g3
I1
sg4
F0.10000000000000001
sg5
F0.54181220464351754
sg6
F0.5
sa(dp14
g3
I1
sg4
F0.01
sg5
F0.89076946784466815
sg6
F0.01
sa(dp15
g3
I1
sg4
F0.01
sg5
F0.89179679474008633
sg6
F0.02
sa(dp16
g3
I1
sg4
F0.01
sg5
F0.89336346825559898
sg6
F0.050000000000000003
sa(dp17
g3
I1
sg4
F0.01
sg5
F0.89287548798027527
sg6
F0.10000000000000001
sa(dp18
g3
I1
sg4
F0.01
sg5
F0.88948530922539548
sg6
F0.14999999999999999
sa(dp19
g3
I1
sg4
F0.01
sg5
F1.3107407026915965
sg6
F0.20000000000000001
sa(dp20
g3
I1
sg4
F0.01
sg5
F0.99314259297308405
sg6
F0.29999999999999999
sa(dp21
g3
I1
sg4
F0.01
sg5
F0.54453462091637561
sg6
F0.5
sa(dp22
g3
I1
sg4
F0.001
sg5
F0.89076946784466815
sg6
F0.01
sa(dp23
g3
I1
sg4
F0.001
sg5
F0.89179679474008633
sg6
F0.02
sa(dp24
g3
I1
sg4
F0.001
sg5
F0.89336346825559898
sg6
F0.050000000000000003
sa(dp25
g3
I1
sg4
F0.001
sg5
F0.89287548798027527
sg6
F0.10000000000000001
sa(dp26
g3
I1
sg4
F0.001
sg5
F0.88948530922539548
sg6
F0.14999999999999999
sa(dp27
g3
I1
sg4
F0.001
sg5
F1.3091226628313128
sg6
F0.20000000000000001
sa(dp28
g3
I1
sg4
F0.001
sg5
F0.99416991986850212
sg6
F0.29999999999999999
sa(dp29
g3
I1
sg4
F0.001
sg5
F0.54458598726114649
sg6
F0.5
sa(dp30
g3
I2
sg4
F0.10000000000000001
sg5
F0.64806348880213682
sg6
F0.01
sa(dp31
g3
I2
sg4
F0.10000000000000001
sg5
F1.0247585781795767
sg6
F0.02
sa(dp32
g3
I2
sg4
F0.10000000000000001
sg5
F1.2621738237107047
sg6
F0.050000000000000003
sa(dp33
g3
I2
sg4
F0.10000000000000001
sg5
F0.87903225806451613
sg6
F0.10000000000000001
sa(dp34
g3
I2
sg4
F0.10000000000000001
sg5
F0.86308300801314974
sg6
F0.14999999999999999
sa(dp35
g3
I2
sg4
F0.10000000000000001
sg5
F1.3412779946579001
sg6
F0.20000000000000001
sa(dp36
g3
I2
sg4
F0.10000000000000001
sg5
F0.94121121840969801
sg6
F0.29999999999999999
sa(dp37
g3
I2
sg4
F0.10000000000000001
sg5
F0.64636839942469693
sg6
F0.5
sa(dp38
g3
I2
sg4
F0.01
sg5
F0.89076946784466815
sg6
F0.01
sa(dp39
g3
I2
sg4
F0.01
sg5
F0.89179679474008633
sg6
F0.02
sa(dp40
g3
I2
sg4
F0.01
sg5
F0.89336346825559898
sg6
F0.050000000000000003
sa(dp41
g3
I2
sg4
F0.01
sg5
F0.89287548798027527
sg6
F0.10000000000000001
sa(dp42
g3
I2
sg4
F0.01
sg5
F0.88956235874255185
sg6
F0.14999999999999999
sa(dp43
g3
I2
sg4
F0.01
sg5
F1.3013663447709061
sg6
F0.20000000000000001
sa(dp44
g3
I2
sg4
F0.01
sg5
F0.94246969385658519
sg6
F0.29999999999999999
sa(dp45
g3
I2
sg4
F0.01
sg5
F0.53947503595644131
sg6
F0.5
sa(dp46
g3
I2
sg4
F0.001
sg5
F0.89076946784466815
sg6
F0.01
sa(dp47
g3
I2
sg4
F0.001
sg5
F0.89179679474008633
sg6
F0.02
sa(dp48
g3
I2
sg4
F0.001
sg5
F0.89331210191082799
sg6
F0.050000000000000003
sa(dp49
g3
I2
sg4
F0.001
sg5
F0.89287548798027527
sg6
F0.10000000000000001
sa(dp50
g3
I2
sg4
F0.001
sg5
F0.88940825970823911
sg6
F0.14999999999999999
sa(dp51
g3
I2
sg4
F0.001
sg5
F1.3018543250462298
sg6
F0.20000000000000001
sa(dp52
g3
I2
sg4
F0.001
sg5
F0.9424440106841997
sg6
F0.29999999999999999
sa(dp53
g3
I2
sg4
F0.001
sg5
F0.53975755085268129
sg6
F0.5
sa(dp54
g3
I3
sg4
F0.10000000000000001
sg5
F0.58347031025272245
sg6
F0.01
sa(dp55
g3
I3
sg4
F0.10000000000000001
sg5
F0.77175364701047877
sg6
F0.02
sa(dp56
g3
I3
sg4
F0.10000000000000001
sg5
F1.0366498869940415
sg6
F0.050000000000000003
sa(dp57
g3
I3
sg4
F0.10000000000000001
sg5
F0.99247483049106222
sg6
F0.10000000000000001
sa(dp58
g3
I3
sg4
F0.10000000000000001
sg5
F0.87764536675570171
sg6
F0.14999999999999999
sa(dp59
g3
I3
sg4
F0.10000000000000001
sg5
F1.3259965070885555
sg6
F0.20000000000000001
sa(dp60
g3
I3
sg4
F0.10000000000000001
sg5
F0.92225703718923357
sg6
F0.29999999999999999
sa(dp61
g3
I3
sg4
F0.10000000000000001
sg5
F0.78012636120813639
sg6
F0.5
sa(dp62
g3
I3
sg4
F0.01
sg5
F0.79224881857407026
sg6
F0.01
sa(dp63
g3
I3
sg4
F0.01
sg5
F0.95464351756728993
sg6
F0.02
sa(dp64
g3
I3
sg4
F0.01
sg5
F1.1267464557222109
sg6
F0.050000000000000003
sa(dp65
g3
I3
sg4
F0.01
sg5
F0.89287548798027527
sg6
F0.10000000000000001
sa(dp66
g3
I3
sg4
F0.01
sg5
F0.87148140538319296
sg6
F0.14999999999999999
sa(dp67
g3
I3
sg4
F0.01
sg5
F1.3701458804191493
sg6
F0.20000000000000001
sa(dp68
g3
I3
sg4
F0.01
sg5
F0.92374666118758986
sg6
F0.29999999999999999
sa(dp69
g3
I3
sg4
F0.01
sg5
F0.58937743990137659
sg6
F0.5
sa(dp70
g3
I3
sg4
F0.001
sg5
F0.89076946784466815
sg6
F0.01
sa(dp71
g3
I3
sg4
F0.001
sg5
F0.89179679474008633
sg6
F0.02
sa(dp72
g3
I3
sg4
F0.001
sg5
F0.89336346825559898
sg6
F0.050000000000000003
sa(dp73
g3
I3
sg4
F0.001
sg5
F0.89287548798027527
sg6
F0.10000000000000001
sa(dp74
g3
I3
sg4
F0.001
sg5
F0.86968358331621121
sg6
F0.14999999999999999
sa(dp75
g3
I3
sg4
F0.001
sg5
F1.3620556811177316
sg6
F0.20000000000000001
sa(dp76
g3
I3
sg4
F0.001
sg5
F0.92372097801520447
sg6
F0.29999999999999999
sa(dp77
g3
I3
sg4
F0.001
sg5
F0.53975755085268129
sg6
F0.5
sa(dp78
g3
I4
sg4
F0.10000000000000001
sg5
F0.52974111362235465
sg6
F0.01
sa(dp79
g3
I4
sg4
F0.10000000000000001
sg5
F0.76556400246558454
sg6
F0.02
sa(dp80
g3
I4
sg4
F0.10000000000000001
sg5
F0.84400041093075817
sg6
F0.050000000000000003
sa(dp81
g3
I4
sg4
F0.10000000000000001
sg5
F0.97382884733922337
sg6
F0.10000000000000001
sa(dp82
g3
I4
sg4
F0.10000000000000001
sg5
F0.86780871173207319
sg6
F0.14999999999999999
sa(dp83
g3
I4
sg4
F0.10000000000000001
sg5
F1.2482535442777891
sg6
F0.20000000000000001
sa(dp84
g3
I4
sg4
F0.10000000000000001
sg5
F0.90610232175878369
sg6
F0.29999999999999999
sa(dp85
g3
I4
sg4
F0.10000000000000001
sg5
F0.87171255393466196
sg6
F0.5
sa(dp86
g3
I4
sg4
F0.01
sg5
F0.63193445654407232
sg6
F0.01
sa(dp87
g3
I4
sg4
F0.01
sg5
F1.1637302239572631
sg6
F0.02
sa(dp88
g3
I4
sg4
F0.01
sg5
F1.1214557222108075
sg6
F0.050000000000000003
sa(dp89
g3
I4
sg4
F0.01
sg5
F0.88619786316005755
sg6
F0.10000000000000001
sa(dp90
g3
I4
sg4
F0.01
sg5
F0.88370659543866859
sg6
F0.14999999999999999
sa(dp91
g3
I4
sg4
F0.01
sg5
F1.3923361413601809
sg6
F0.20000000000000001
sa(dp92
g3
I4
sg4
F0.01
sg5
F0.9094411341688925
sg6
F0.29999999999999999
sa(dp93
g3
I4
sg4
F0.01
sg5
F0.65831107458393257
sg6
F0.5
sa(dp94
g3
I4
sg4
F0.001
sg5
F0.88031641668378879
sg6
F0.01
sa(dp95
g3
I4
sg4
F0.001
sg5
F0.9472467639202794
sg6
F0.02
sa(dp96
g3
I4
sg4
F0.001
sg5
F1.8354992808711732
sg6
F0.050000000000000003
sa(dp97
g3
I4
sg4
F0.001
sg5
F0.89287548798027527
sg6
F0.10000000000000001
sa(dp98
g3
I4
sg4
F0.001
sg5
F0.88368091226628309
sg6
F0.14999999999999999
sa(dp99
g3
I4
sg4
F0.001
sg5
F1.3927213889459626
sg6
F0.20000000000000001
sa(dp100
g3
I4
sg4
F0.001
sg5
F0.90956955003081985
sg6
F0.29999999999999999
sa(dp101
g3
I4
sg4
F0.001
sg5
F0.56266694062050548
sg6
F0.5
sa(dp102
g3
I5
sg4
F0.10000000000000001
sg5
F0.51679679474008633
sg6
F0.01
sa(dp103
g3
I5
sg4
F0.10000000000000001
sg5
F0.75023114855146911
sg6
F0.02
sa(dp104
g3
I5
sg4
F0.10000000000000001
sg5
F0.80943086089993832
sg6
F0.050000000000000003
sa(dp105
g3
I5
sg4
F0.10000000000000001
sg5
F0.92030511608793919
sg6
F0.10000000000000001
sa(dp106
g3
I5
sg4
F0.10000000000000001
sg5
F0.87841586192726528
sg6
F0.14999999999999999
sa(dp107
g3
I5
sg4
F0.10000000000000001
sg5
F1.1442366961167043
sg6
F0.20000000000000001
sa(dp108
g3
I5
sg4
F0.10000000000000001
sg5
F0.9000410930758167
sg6
F0.29999999999999999
sa(dp109
g3
I5
sg4
F0.10000000000000001
sg5
F0.90635915348263818
sg6
F0.5
sa(dp110
g3
I5
sg4
F0.01
sg5
F0.59194575713992192
sg6
F0.01
sa(dp111
g3
I5
sg4
F0.01
sg5
F0.87507704951715637
sg6
F0.02
sa(dp112
g3
I5
sg4
F0.01
sg5
F1.000616396137251
sg6
F0.050000000000000003
sa(dp113
g3
I5
sg4
F0.01
sg5
F0.9954283953153894
sg6
F0.10000000000000001
sa(dp114
g3
I5
sg4
F0.01
sg5
F0.89110334908567901
sg6
F0.14999999999999999
sa(dp115
g3
I5
sg4
F0.01
sg5
F1.3409697965892746
sg6
F0.20000000000000001
sa(dp116
g3
I5
sg4
F0.01
sg5
F0.90009245942058758
sg6
F0.29999999999999999
sa(dp117
g3
I5
sg4
F0.01
sg5
F0.73438463118964459
sg6
F0.5
sa(dp118
g3
I5
sg4
F0.001
sg5
F0.71116704335319503
sg6
F0.01
sa(dp119
g3
I5
sg4
F0.001
sg5
F1.0795664680501336
sg6
F0.02
sa(dp120
g3
I5
sg4
F0.001
sg5
F0.97049003492911445
sg6
F0.050000000000000003
sa(dp121
g3
I5
sg4
F0.001
sg5
F0.89295253749743164
sg6
F0.10000000000000001
sa(dp122
g3
I5
sg4
F0.001
sg5
F0.8901787548798028
sg6
F0.14999999999999999
sa(dp123
g3
I5
sg4
F0.001
sg5
F1.3981919046640641
sg6
F0.20000000000000001
sa(dp124
g3
I5
sg4
F0.001
sg5
F0.90022087528251493
sg6
F0.29999999999999999
sa(dp125
g3
I5
sg4
F0.001
sg5
F0.61570269159646596
sg6
F0.5
sa(dp126
g3
I6
sg4
F0.10000000000000001
sg5
F0.51327820012327918
sg6
F0.01
sa(dp127
g3
I6
sg4
F0.10000000000000001
sg5
F0.7234949660982124
sg6
F0.02
sa(dp128
g3
I6
sg4
F0.10000000000000001
sg5
F0.79748818574070268
sg6
F0.050000000000000003
sa(dp129
g3
I6
sg4
F0.10000000000000001
sg5
F0.89937333059379498
sg6
F0.10000000000000001
sa(dp130
g3
I6
sg4
F0.10000000000000001
sg5
F0.89087220053421001
sg6
F0.14999999999999999
sa(dp131
g3
I6
sg4
F0.10000000000000001
sg5
F1.0819806862543662
sg6
F0.20000000000000001
sa(dp132
g3
I6
sg4
F0.10000000000000001
sg5
F0.89983562769673309
sg6
F0.29999999999999999
sa(dp133
g3
I6
sg4
F0.10000000000000001
sg5
F0.92338709677419351
sg6
F0.5
sa(dp134
g3
I6
sg4
F0.01
sg5
F0.54525374974316831
sg6
F0.01
sa(dp135
g3
I6
sg4
F0.01
sg5
F0.77106020135607145
sg6
F0.02
sa(dp136
g3
I6
sg4
F0.01
sg5
F0.97200534209985623
sg6
F0.050000000000000003
sa(dp137
g3
I6
sg4
F0.01
sg5
F0.98993219642490238
sg6
F0.10000000000000001
sa(dp138
g3
I6
sg4
F0.01
sg5
F0.87795356482432707
sg6
F0.14999999999999999
sa(dp139
g3
I6
sg4
F0.01
sg5
F1.3080182864187384
sg6
F0.20000000000000001
sa(dp140
g3
I6
sg4
F0.01
sg5
F0.89916786521471137
sg6
F0.29999999999999999
sa(dp141
g3
I6
sg4
F0.01
sg5
F0.79494555167454284
sg6
F0.5
sa(dp142
g3
I6
sg4
F0.001
sg5
F0.63021368399424693
sg6
F0.01
sa(dp143
g3
I6
sg4
F0.001
sg5
F1.0702948428189849
sg6
F0.02
sa(dp144
g3
I6
sg4
F0.001
sg5
F1.007371070474625
sg6
F0.050000000000000003
sa(dp145
g3
I6
sg4
F0.001
sg5
F0.89287548798027527
sg6
F0.10000000000000001
sa(dp146
g3
I6
sg4
F0.001
sg5
F0.89508424080542426
sg6
F0.14999999999999999
sa(dp147
g3
I6
sg4
F0.001
sg5
F1.4012995685227039
sg6
F0.20000000000000001
sa(dp148
g3
I6
sg4
F0.001
sg5
F0.89901376618039863
sg6
F0.29999999999999999
sa(dp149
g3
I6
sg4
F0.001
sg5
F0.66717176905691389
sg6
F0.5
sa(dp150
g3
I7
sg4
F0.10000000000000001
sg5
F0.50975960550647215
sg6
F0.01
sa(dp151
g3
I7
sg4
F0.10000000000000001
sg5
F0.71198890486952948
sg6
F0.02
sa(dp152
g3
I7
sg4
F0.10000000000000001
sg5
F0.7943034723649065
sg6
F0.050000000000000003
sa(dp153
g3
I7
sg4
F0.10000000000000001
sg5
F0.885093486747483
sg6
F0.10000000000000001
sa(dp154
g3
I7
sg4
F0.10000000000000001
sg5
F0.90016950893774395
sg6
F0.14999999999999999
sa(dp155
g3
I7
sg4
F0.10000000000000001
sg5
F1.0270186973494966
sg6
F0.20000000000000001
sa(dp156
g3
I7
sg4
F0.10000000000000001
sg5
F0.8995531128004931
sg6
F0.29999999999999999
sa(dp157
g3
I7
sg4
F0.10000000000000001
sg5
F0.91730018491884113
sg6
F0.5
sa(dp158
g3
I7
sg4
F0.01
sg5
F0.53066570782823097
sg6
F0.01
sa(dp159
g3
I7
sg4
F0.01
sg5
F0.76800390384220263
sg6
F0.02
sa(dp160
g3
I7
sg4
F0.01
sg5
F0.85920484898294636
sg6
F0.050000000000000003
sa(dp161
g3
I7
sg4
F0.01
sg5
F0.97508732278611054
sg6
F0.10000000000000001
sa(dp162
g3
I7
sg4
F0.01
sg5
F0.86983768235052394
sg6
F0.14999999999999999
sa(dp163
g3
I7
sg4
F0.01
sg5
F1.2441185535237314
sg6
F0.20000000000000001
sa(dp164
g3
I7
sg4
F0.01
sg5
F0.89911649886994038
sg6
F0.29999999999999999
sa(dp165
g3
I7
sg4
F0.01
sg5
F0.83796486542017667
sg6
F0.5
sa(dp166
g3
I7
sg4
F0.001
sg5
F0.59708239161701249
sg6
F0.01
sa(dp167
g3
I7
sg4
F0.001
sg5
F0.90212143003903844
sg6
F0.02
sa(dp168
g3
I7
sg4
F0.001
sg5
F0.88388637764536671
sg6
F0.050000000000000003
sa(dp169
g3
I7
sg4
F0.001
sg5
F1.0151530717074173
sg6
F0.10000000000000001
sa(dp170
g3
I7
sg4
F0.001
sg5
F0.89742140949250049
sg6
F0.14999999999999999
sa(dp171
g3
I7
sg4
F0.001
sg5
F1.3519878775426342
sg6
F0.20000000000000001
sa(dp172
g3
I7
sg4
F0.001
sg5
F0.89927059790425312
sg6
F0.29999999999999999
sa(dp173
g3
I7
sg4
F0.001
sg5
F0.70790528046024248
sg6
F0.5
sa(dp174
g3
I8
sg4
F0.10000000000000001
sg5
F0.50932299157591943
sg6
F0.01
sa(dp175
g3
I8
sg4
F0.10000000000000001
sg5
F0.70644133963427158
sg6
F0.02
sa(dp176
g3
I8
sg4
F0.10000000000000001
sg5
F0.78177008424080541
sg6
F0.050000000000000003
sa(dp177
g3
I8
sg4
F0.10000000000000001
sg5
F0.88023936716663242
sg6
F0.10000000000000001
sa(dp178
g3
I8
sg4
F0.10000000000000001
sg5
F0.90458701458804192
sg6
F0.14999999999999999
sa(dp179
g3
I8
sg4
F0.10000000000000001
sg5
F0.98900760221902606
sg6
F0.20000000000000001
sa(dp180
g3
I8
sg4
F0.10000000000000001
sg5
F0.89790938976782408
sg6
F0.29999999999999999
sa(dp181
g3
I8
sg4
F0.10000000000000001
sg5
F0.90987774809944522
sg6
F0.5
sa(dp182
g3
I8
sg4
F0.01
sg5
F0.52403944935278401
sg6
F0.01
sa(dp183
g3
I8
sg4
F0.01
sg5
F0.75523936716663242
sg6
F0.02
sa(dp184
g3
I8
sg4
F0.01
sg5
F0.81654509965070887
sg6
F0.050000000000000003
sa(dp185
g3
I8
sg4
F0.01
sg5
F0.93455927676186568
sg6
F0.10000000000000001
sa(dp186
g3
I8
sg4
F0.01
sg5
F0.86927265255804398
sg6
F0.14999999999999999
sa(dp187
g3
I8
sg4
F0.01
sg5
F1.1962964865420176
sg6
F0.20000000000000001
sa(dp188
g3
I8
sg4
F0.01
sg5
F0.89767824121635509
sg6
F0.29999999999999999
sa(dp189
g3
I8
sg4
F0.01
sg5
F0.868990137661804
sg6
F0.5
sa(dp190
g3
I8
sg4
F0.001
sg5
F0.56705876309841796
sg6
F0.01
sa(dp191
g3
I8
sg4
F0.001
sg5
F0.78310560920484895
sg6
F0.02
sa(dp192
g3
I8
sg4
F0.001
sg5
F1.0118656256420793
sg6
F0.050000000000000003
sa(dp193
g3
I8
sg4
F0.001
sg5
F1.0111721799876721
sg6
F0.10000000000000001
sa(dp194
g3
I8
sg4
F0.001
sg5
F0.89449352784055891
sg6
F0.14999999999999999
sa(dp195
g3
I8
sg4
F0.001
sg5
F1.3396085884528457
sg6
F0.20000000000000001
sa(dp196
g3
I8
sg4
F0.001
sg5
F0.89742140949250049
sg6
F0.29999999999999999
sa(dp197
g3
I8
sg4
F0.001
sg5
F0.7596311896445449
sg6
F0.5
sa(dp198
g3
I9
sg4
F0.10000000000000001
sg5
F0.50950277378261766
sg6
F0.01
sa(dp199
g3
I9
sg4
F0.10000000000000001
sg5
F0.70518286418738441
sg6
F0.02
sa(dp200
g3
I9
sg4
F0.10000000000000001
sg5
F0.7731148551469077
sg6
F0.050000000000000003
sa(dp201
g3
I9
sg4
F0.10000000000000001
sg5
F0.88067598109718515
sg6
F0.10000000000000001
sa(dp202
g3
I9
sg4
F0.10000000000000001
sg5
F0.90818265872200532
sg6
F0.14999999999999999
sa(dp203
g3
I9
sg4
F0.10000000000000001
sg5
F0.95474625025683169
sg6
F0.20000000000000001
sa(dp204
g3
I9
sg4
F0.10000000000000001
sg5
F0.89652249845900966
sg6
F0.29999999999999999
sa(dp205
g3
I9
sg4
F0.10000000000000001
sg5
F0.90289192521060202
sg6
F0.5
sa(dp206
g3
I9
sg4
F0.01
sg5
F0.51841483460036986
sg6
F0.01
sa(dp207
g3
I9
sg4
F0.01
sg5
F0.74373330593794951
sg6
F0.02
sa(dp208
g3
I9
sg4
F0.01
sg5
F0.80462810766385862
sg6
F0.050000000000000003
sa(dp209
g3
I9
sg4
F0.01
sg5
F0.91349907540579411
sg6
F0.10000000000000001
sa(dp210
g3
I9
sg4
F0.01
sg5
F0.86932401890281485
sg6
F0.14999999999999999
sa(dp211
g3
I9
sg4
F0.01
sg5
F1.1519673310047258
sg6
F0.20000000000000001
sa(dp212
g3
I9
sg4
F0.01
sg5
F0.89698479556194777
sg6
F0.29999999999999999
sa(dp213
g3
I9
sg4
F0.01
sg5
F0.88786726936511196
sg6
F0.5
sa(dp214
g3
I9
sg4
F0.001
sg5
F0.54456030408876099
sg6
F0.01
sa(dp215
g3
I9
sg4
F0.001
sg5
F0.76954489418532979
sg6
F0.02
sa(dp216
g3
I9
sg4
F0.001
sg5
F0.95081672488185742
sg6
F0.050000000000000003
sa(dp217
g3
I9
sg4
F0.001
sg5
F1.0164115471543045
sg6
F0.10000000000000001
sa(dp218
g3
I9
sg4
F0.001
sg5
F0.8783644955824943
sg6
F0.14999999999999999
sa(dp219
g3
I9
sg4
F0.001
sg5
F1.2939695911238955
sg6
F0.20000000000000001
sa(dp220
g3
I9
sg4
F0.001
sg5
F0.89683069652763514
sg6
F0.29999999999999999
sa(dp221
g3
I9
sg4
F0.001
sg5
F0.79301931374563384
sg6
F0.5
sa(dp222
S'a_value'
p223
I10
sS'epsilon'
p224
F0.10000000000000001
sS'mae'
p225
F0.51019621943702487
sS'reduction_level'
p226
F0.01
sa(dp227
g223
I10
sg224
F0.10000000000000001
sg225
F0.70610745839326072
sg226
F0.02
sa(dp228
g223
I10
sg224
F0.10000000000000001
sg225
F0.76461372508732284
sg226
F0.050000000000000003
sa(dp229
g223
I10
sg224
F0.10000000000000001
sg225
F0.88011095130470518
sg226
F0.10000000000000001
sa(dp230
g223
I10
sg224
F0.10000000000000001
sg225
F0.91010889665091432
sg226
F0.14999999999999999
sa(dp231
g223
I10
sg224
F0.10000000000000001
sg225
F0.93091226628313128
sg226
F0.20000000000000001
sa(dp232
g223
I10
sg224
F0.10000000000000001
sg225
F0.8964197657694678
sg226
F0.29999999999999999
sa(dp233
g223
I10
sg224
F0.10000000000000001
sg225
F0.89734435997534412
sg226
F0.5
sa(dp234
g223
I10
sg224
F0.01
sg225
F0.51689952742962808
sg226
F0.01
sa(dp235
g223
I10
sg224
F0.01
sg225
F0.72195397575508524
sg226
F0.02
sa(dp236
g223
I10
sg224
F0.01
sg225
F0.80059584959934249
sg226
F0.050000000000000003
sa(dp237
g223
I10
sg224
F0.01
sg225
F0.90720669817135813
sg226
F0.10000000000000001
sa(dp238
g223
I10
sg224
F0.01
sg225
F0.89267002260119166
sg226
F0.14999999999999999
sa(dp239
g223
I10
sg224
F0.01
sg225
F1.100960550647216
sg226
F0.20000000000000001
sa(dp240
g223
I10
sg224
F0.01
sg225
F0.89708752825148963
sg226
F0.29999999999999999
sa(dp241
g223
I10
sg224
F0.01
sg225
F0.90235257859050755
sg226
F0.5
sa(dp242
g223
I10
sg224
F0.001
sg225
F0.53626463940825975
sg226
F0.01
sa(dp243
g223
I10
sg224
F0.001
sg225
F0.7581929319909595
sg226
F0.02
sa(dp244
g223
I10
sg224
F0.001
sg225
F0.86395623587425519
sg226
F0.050000000000000003
sa(dp245
g223
I10
sg224
F0.001
sg225
F0.97244195603040884
sg226
F0.10000000000000001
sa(dp246
g223
I10
sg224
F0.001
sg225
F0.87227758372714193
sg226
F0.14999999999999999
sa(dp247
g223
I10
sg224
F0.001
sg225
F1.2520803369632216
sg226
F0.20000000000000001
sa(dp248
g223
I10
sg224
F0.001
sg225
F0.89685637970002052
sg226
F0.29999999999999999
sa(dp249
g223
I10
sg224
F0.001
sg225
F0.82355660571193756
sg226
F0.5
sa(dp250
g223
I11
sg224
F0.10000000000000001
sg225
F0.50919457571399218
sg226
F0.01
sa(dp251
g223
I11
sg224
F0.10000000000000001
sg225
F0.7032566262584754
sg226
F0.02
sa(dp252
g223
I11
sg224
F0.10000000000000001
sg225
F0.76497328950071908
sg226
F0.050000000000000003
sa(dp253
g223
I11
sg224
F0.10000000000000001
sg225
F0.87774809944524346
sg226
F0.10000000000000001
sa(dp254
g223
I11
sg224
F0.10000000000000001
sg225
F0.9080028765153072
sg226
F0.14999999999999999
sa(dp255
g223
I11
sg224
F0.10000000000000001
sg225
F0.91719745222929938
sg226
F0.20000000000000001
sa(dp256
g223
I11
sg224
F0.10000000000000001
sg225
F0.89636839942469693
sg226
F0.29999999999999999
sa(dp257
g223
I11
sg224
F0.10000000000000001
sg225
F0.89290117115266077
sg226
F0.5
sa(dp258
g223
I11
sg224
F0.01
sg225
F0.51461372508732284
sg226
F0.01
sa(dp259
g223
I11
sg224
F0.01
sg225
F0.72033593589480172
sg226
F0.02
sa(dp260
g223
I11
sg224
F0.01
sg225
F0.7911958085062667
sg226
F0.050000000000000003
sa(dp261
g223
I11
sg224
F0.01
sg225
F0.89618861721799881
sg226
F0.10000000000000001
sa(dp262
g223
I11
sg224
F0.01
sg225
F0.89025580439695906
sg226
F0.14999999999999999
sa(dp263
g223
I11
sg224
F0.01
sg225
F1.0605095541401275
sg226
F0.20000000000000001
sa(dp264
g223
I11
sg224
F0.01
sg225
F0.89652249845900966
sg226
F0.29999999999999999
sa(dp265
g223
I11
sg224
F0.01
sg225
F0.90748921306759811
sg226
F0.5
sa(dp266
g223
I11
sg224
F0.001
sg225
F0.52879083624409284
sg226
F0.01
sa(dp267
g223
I11
sg224
F0.001
sg225
F0.75300493116909806
sg226
F0.02
sa(dp268
g223
I11
sg224
F0.001
sg225
F0.82920690363673721
sg226
F0.050000000000000003
sa(dp269
g223
I11
sg224
F0.001
sg225
F0.94963529895212662
sg226
F0.10000000000000001
sa(dp270
g223
I11
sg224
F0.001
sg225
F0.87202075200328744
sg226
F0.14999999999999999
sa(dp271
g223
I11
sg224
F0.001
sg225
F1.2116807068009041
sg226
F0.20000000000000001
sa(dp272
g223
I11
sg224
F0.001
sg225
F0.89626566673515518
sg226
F0.29999999999999999
sa(dp273
g223
I11
sg224
F0.001
sg225
F0.8451304705157181
sg226
F0.5
sa(dp274
g223
I12
sg224
F0.10000000000000001
sg225
F0.50916889254160669
sg226
F0.01
sa(dp275
g223
I12
sg224
F0.10000000000000001
sg225
F0.70461783439490444
sg226
F0.02
sa(dp276
g223
I12
sg224
F0.10000000000000001
sg225
F0.76410006163961375
sg226
F0.050000000000000003
sa(dp277
g223
I12
sg224
F0.10000000000000001
sg225
F0.87464043558660365
sg226
F0.10000000000000001
sa(dp278
g223
I12
sg224
F0.10000000000000001
sg225
F0.91080234230532153
sg226
F0.14999999999999999
sa(dp279
g223
I12
sg224
F0.10000000000000001
sg225
F0.90931271830696525
sg226
F0.20000000000000001
sa(dp280
g223
I12
sg224
F0.10000000000000001
sg225
F0.8964197657694678
sg226
F0.29999999999999999
sa(dp281
g223
I12
sg224
F0.10000000000000001
sg225
F0.89272138894596265
sg226
F0.5
sa(dp282
g223
I12
sg224
F0.01
sg225
F0.5137404972262174
sg226
F0.01
sa(dp283
g223
I12
sg224
F0.01
sg225
F0.70970310252722413
sg226
F0.02
sa(dp284
g223
I12
sg224
F0.01
sg225
F0.78806246147524139
sg226
F0.050000000000000003
sa(dp285
g223
I12
sg224
F0.01
sg225
F0.88606944729813031
sg226
F0.10000000000000001
sa(dp286
g223
I12
sg224
F0.01
sg225
F0.89159132936100272
sg226
F0.14999999999999999
sa(dp287
g223
I12
sg224
F0.01
sg225
F1.0291247174851037
sg226
F0.20000000000000001
sa(dp288
g223
I12
sg224
F0.01
sg225
F0.89724162728580237
sg226
F0.29999999999999999
sa(dp289
g223
I12
sg224
F0.01
sg225
F0.9104170947195398
sg226
F0.5
sa(dp290
g223
I12
sg224
F0.001
sg225
F0.52172796383809328
sg226
F0.01
sa(dp291
g223
I12
sg224
F0.001
sg225
F0.74838196013971647
sg226
F0.02
sa(dp292
g223
I12
sg224
F0.001
sg225
F0.80896856379700022
sg226
F0.050000000000000003
sa(dp293
g223
I12
sg224
F0.001
sg225
F0.93396856379700022
sg226
F0.10000000000000001
sa(dp294
g223
I12
sg224
F0.001
sg225
F0.8713786726936511
sg226
F0.14999999999999999
sa(dp295
g223
I12
sg224
F0.001
sg225
F1.1713581261557429
sg226
F0.20000000000000001
sa(dp296
g223
I12
sg224
F0.001
sg225
F0.89685637970002052
sg226
F0.29999999999999999
sa(dp297
g223
I12
sg224
F0.001
sg225
F0.86621635504417505
sg226
F0.5
sa(dp298
g223
I13
sg224
F0.10000000000000001
sg225
F0.50914320936922131
sg226
F0.01
sa(dp299
g223
I13
sg224
F0.10000000000000001
sg225
F0.70595335935894798
sg226
F0.02
sa(dp300
g223
I13
sg224
F0.10000000000000001
sg225
F0.76091534826381757
sg226
F0.050000000000000003
sa(dp301
g223
I13
sg224
F0.10000000000000001
sg225
F0.87482021779330188
sg226
F0.10000000000000001
sa(dp302
g223
I13
sg224
F0.10000000000000001
sg225
F0.91003184713375795
sg226
F0.14999999999999999
sa(dp303
g223
I13
sg224
F0.10000000000000001
sg225
F0.90584549003492909
sg226
F0.20000000000000001
sa(dp304
g223
I13
sg224
F0.10000000000000001
sg225
F0.89513560715019524
sg226
F0.29999999999999999
sa(dp305
g223
I13
sg224
F0.10000000000000001
sg225
F0.89274707211834803
sg226
F0.5
sa(dp306
g223
I13
sg224
F0.01
sg225
F0.51268748715841383
sg226
F0.01
sa(dp307
g223
I13
sg224
F0.01
sg225
F0.70798232997739885
sg226
F0.02
sa(dp308
g223
I13
sg224
F0.01
sg225
F0.78482638175467434
sg226
F0.050000000000000003
sa(dp309
g223
I13
sg224
F0.01
sg225
F0.87926340661598523
sg226
F0.10000000000000001
sa(dp310
g223
I13
sg224
F0.01
sg225
F0.89053831929319904
sg226
F0.14999999999999999
sa(dp311
g223
I13
sg224
F0.01
sg225
F1.0142284775015409
sg226
F0.20000000000000001
sa(dp312
g223
I13
sg224
F0.01
sg225
F0.89631703307992605
sg226
F0.29999999999999999
sa(dp313
g223
I13
sg224
F0.01
sg225
F0.90754057941236899
sg226
F0.5
sa(dp314
g223
I13
sg224
F0.001
sg225
F0.51985309225395526
sg226
F0.01
sa(dp315
g223
I13
sg224
F0.001
sg225
F0.73926443394288066
sg226
F0.02
sa(dp316
g223
I13
sg224
F0.001
sg225
F0.80031333470310251
sg226
F0.050000000000000003
sa(dp317
g223
I13
sg224
F0.001
sg225
F0.92338709677419351
sg226
F0.10000000000000001
sa(dp318
g223
I13
sg224
F0.001
sg225
F0.86986336552290944
sg226
F0.14999999999999999
sa(dp319
g223
I13
sg224
F0.001
sg225
F1.1507602219026094
sg226
F0.20000000000000001
sa(dp320
g223
I13
sg224
F0.001
sg225
F0.89621430039038419
sg226
F0.29999999999999999
sa(dp321
g223
I13
sg224
F0.001
sg225
F0.87779946579001433
sg226
F0.5
sa(dp322
g223
I14
sg224
F0.10000000000000001
sg225
F0.50924594205876306
sg226
F0.01
sa(dp323
g223
I14
sg224
F0.10000000000000001
sg225
F0.70518286418738441
sg226
F0.02
sa(dp324
g223
I14
sg224
F0.10000000000000001
sg225
F0.75970823916170127
sg226
F0.050000000000000003
sa(dp325
g223
I14
sg224
F0.10000000000000001
sg225
F0.87130162317649473
sg226
F0.10000000000000001
sa(dp326
g223
I14
sg224
F0.10000000000000001
sg225
F0.90730943086089999
sg226
F0.14999999999999999
sa(dp327
g223
I14
sg224
F0.10000000000000001
sg225
F0.90327717279638386
sg226
F0.20000000000000001
sa(dp328
g223
I14
sg224
F0.10000000000000001
sg225
F0.89626566673515518
sg226
F0.29999999999999999
sa(dp329
g223
I14
sg224
F0.10000000000000001
sg225
F0.89290117115266077
sg226
F0.5
sa(dp330
g223
I14
sg224
F0.01
sg225
F0.51199404150400663
sg226
F0.01
sa(dp331
g223
I14
sg224
F0.01
sg225
F0.70746866652968976
sg226
F0.02
sa(dp332
g223
I14
sg224
F0.01
sg225
F0.77881651941647834
sg226
F0.050000000000000003
sa(dp333
g223
I14
sg224
F0.01
sg225
F0.87736285185946172
sg226
F0.10000000000000001
sa(dp334
g223
I14
sg224
F0.01
sg225
F0.89647113211423879
sg226
F0.14999999999999999
sa(dp335
g223
I14
sg224
F0.01
sg225
F0.98911033490856792
sg226
F0.20000000000000001
sa(dp336
g223
I14
sg224
F0.01
sg225
F0.89534107252927886
sg226
F0.29999999999999999
sa(dp337
g223
I14
sg224
F0.01
sg225
F0.90566570782823097
sg226
F0.5
sa(dp338
g223
I14
sg224
F0.001
sg225
F0.51869734949660984
sg226
F0.01
sa(dp339
g223
I14
sg224
F0.001
sg225
F0.72580645161290325
sg226
F0.02
sa(dp340
g223
I14
sg224
F0.001
sg225
F0.80003081980686253
sg226
F0.050000000000000003
sa(dp341
g223
I14
sg224
F0.001
sg225
F0.91509143209369226
sg226
F0.10000000000000001
sa(dp342
g223
I14
sg224
F0.001
sg225
F0.88095849599342513
sg226
F0.14999999999999999
sa(dp343
g223
I14
sg224
F0.001
sg225
F1.10912779946579
sg226
F0.20000000000000001
sa(dp344
g223
I14
sg224
F0.001
sg225
F0.89526402301212249
sg226
F0.29999999999999999
sa(dp345
g223
I14
sg224
F0.001
sg225
F0.8882525169508938
sg226
F0.5
sa.